; Function Attrs: nounwind uwtable
define hidden range(i32 -1, 1) i32 @_PyTestCapi_Init_Buffer(ptr noundef %0) local_unnamed_addr #0 {
  %2 = tail call i32 @PyType_Ready(ptr noundef nonnull @testBufType) #3
  %3 = icmp slt i32 %2, 0
  br i1 %3, label %6, label %4

4:                                                ; preds = %1
  %5 = tail call i32 @PyModule_AddObjectRef(ptr noundef %0, ptr noundef nonnull @.str, ptr noundef nonnull @testBufType) #3
  %.not = icmp ne i32 %5, 0
  %. = sext i1 %.not to i32
  br label %6

6:                                                ; preds = %4, %1
  %.0 = phi i32 [ -1, %1 ], [ %., %4 ]
  ret i32 %.0
}